; Function Attrs: mustprogress nounwind uwtable
define void @_ZNK3spv10spirvbin_t13literalStringB5cxx11Ej(ptr dead_on_unwind noalias nonnull writable sret(%"class.std::__cxx11::basic_string") align 8 %0, ptr nocapture noundef nonnull readonly align 8 dereferenceable(473) %1, i32 noundef %2) local_unnamed_addr #0 align 2 {
  tail call void @_ZNSt7__cxx1112basic_stringIcSt11char_traitsIcESaIcEEC1Ev(ptr noundef nonnull align 8 dereferenceable(32) %0) #24
  %4 = getelementptr inbounds i8, ptr %1, i64 8
  %5 = load ptr, ptr %4, align 8
  %6 = zext i32 %2 to i64
  %7 = getelementptr inbounds i32, ptr %5, i64 %6
  tail call void @_ZNSt7__cxx1112basic_stringIcSt11char_traitsIcESaIcEE7reserveEm(ptr noundef nonnull align 8 dereferenceable(32) %0, i64 noundef 16) #24
  br label %8

8:                                                ; preds = %17, %3
  %.011 = phi ptr [ %7, %3 ], [ %18, %17 ]
  %9 = load i32, ptr %.011, align 4
  br label %10

10:                                               ; preds = %8, %12
  %.013 = phi i32 [ 0, %8 ], [ %16, %12 ]
  %.01012 = phi i32 [ %9, %8 ], [ %15, %12 ]
  %sext.mask = and i32 %.01012, 255
  %11 = icmp eq i32 %sext.mask, 0
  br i1 %11, label %19, label %12

12:                                               ; preds = %10
  %13 = trunc i32 %.01012 to i8
  %14 = tail call noundef nonnull align 8 dereferenceable(32) ptr @_ZNSt7__cxx1112basic_stringIcSt11char_traitsIcESaIcEEpLEc(ptr noundef nonnull align 8 dereferenceable(32) %0, i8 noundef signext %13) #24
  %15 = lshr i32 %.01012, 8
  %16 = add nuw nsw i32 %.013, 1
  %exitcond.not = icmp eq i32 %16, 4
  br i1 %exitcond.not, label %17, label %10, !llvm.loop !15

17:                                               ; preds = %12
  %18 = getelementptr inbounds i8, ptr %.011, i64 4
  br label %8, !llvm.loop !16

19:                                               ; preds = %10
  ret void
}